target datalayout = "e-m:e-p270:32:32-p271:32:32-p272:64:64-i64:64-i128:128-f80:128-n8:16:32:64-S128"
target triple = "x86_64-pc-linux-gnu"

%class.JVMCIEnv = type { ptr, i8, i8, ptr, i8, i8, ptr, i32, i32, ptr, ptr }
%class.JVMCIObject = type <{ ptr, i8, [7 x i8] }>
%class.JVMCIObject.base = type <{ ptr, i8 }>
%class.JVMCIObjectArray = type { %class.JVMCIArray.base, [7 x i8] }
%class.JVMCIArray.base = type { %class.JVMCIObject.base }

; Function Attrs: mustprogress nounwind uwtable
define linkonce_odr hidden void @_ZN11JVMCIObjectC2EP8_jobjectb(ptr noundef nonnull align 8 dereferenceable(9) %0, ptr noundef %1, i1 noundef zeroext %2) unnamed_addr #1 comdat align 2 {
  %4 = alloca ptr, align 8
  %5 = alloca ptr, align 8
  %6 = alloca i8, align 1
  store ptr %0, ptr %4, align 8
  store ptr %1, ptr %5, align 8
  %7 = zext i1 %2 to i8
  store i8 %7, ptr %6, align 1
  %8 = load ptr, ptr %4, align 8
  %9 = getelementptr inbounds %class.JVMCIObject, ptr %8, i32 0, i32 0
  %10 = load ptr, ptr %5, align 8
  store ptr %10, ptr %9, align 8
  %11 = getelementptr inbounds %class.JVMCIObject, ptr %8, i32 0, i32 1
  %12 = load i8, ptr %6, align 1
  %13 = trunc i8 %12 to i1
  %14 = zext i1 %13 to i8
  store i8 %14, ptr %11, align 8
  ret void
}

; Function Attrs: mustprogress nounwind uwtable
define linkonce_odr hidden void @_ZN10JVMCIArrayC2EP8_jobjectb(ptr noundef nonnull align 8 dereferenceable(9) %0, ptr noundef %1, i1 noundef zeroext %2) unnamed_addr #1 comdat align 2 {
  %4 = alloca ptr, align 8
  %5 = alloca ptr, align 8
  %6 = alloca i8, align 1
  store ptr %0, ptr %4, align 8
  store ptr %1, ptr %5, align 8
  %7 = zext i1 %2 to i8
  store i8 %7, ptr %6, align 1
  %8 = load ptr, ptr %4, align 8
  %9 = load ptr, ptr %5, align 8
  %10 = load i8, ptr %6, align 1
  %11 = trunc i8 %10 to i1
  call void @_ZN11JVMCIObjectC2EP8_jobjectb(ptr noundef nonnull align 8 dereferenceable(9) %8, ptr noundef %9, i1 noundef zeroext %11)
  ret void
}

; Function Attrs: mustprogress nounwind uwtable
define linkonce_odr hidden void @_ZN16JVMCIObjectArrayC2EP8_jobjectb(ptr noundef nonnull align 8 dereferenceable(9) %0, ptr noundef %1, i1 noundef zeroext %2) unnamed_addr #1 comdat align 2 {
  %4 = alloca ptr, align 8
  %5 = alloca ptr, align 8
  %6 = alloca i8, align 1
  store ptr %0, ptr %4, align 8
  store ptr %1, ptr %5, align 8
  %7 = zext i1 %2 to i8
  store i8 %7, ptr %6, align 1
  %8 = load ptr, ptr %4, align 8
  %9 = load ptr, ptr %5, align 8
  %10 = load i8, ptr %6, align 1
  %11 = trunc i8 %10 to i1
  call void @_ZN10JVMCIArrayC2EP8_jobjectb(ptr noundef nonnull align 8 dereferenceable(9) %8, ptr noundef %9, i1 noundef zeroext %11)
  ret void
}

; Function Attrs: mustprogress nounwind uwtable
define linkonce_odr hidden { ptr, i8 } @_ZN11JVMCIObjectcv16JVMCIObjectArrayEv(ptr noundef nonnull align 8 dereferenceable(9) %0) #1 comdat align 2 {
  %2 = alloca %class.JVMCIObjectArray, align 8
  %3 = alloca ptr, align 8
  store ptr %0, ptr %3, align 8
  %4 = load ptr, ptr %3, align 8
  %5 = getelementptr inbounds %class.JVMCIObject, ptr %4, i32 0, i32 0
  %6 = load ptr, ptr %5, align 8
  %7 = getelementptr inbounds %class.JVMCIObject, ptr %4, i32 0, i32 1
  %8 = load i8, ptr %7, align 8
  %9 = trunc i8 %8 to i1
  call void @_ZN16JVMCIObjectArrayC2EP8_jobjectb(ptr noundef nonnull align 8 dereferenceable(9) %2, ptr noundef %6, i1 noundef zeroext %9)
  %10 = load { ptr, i8 }, ptr %2, align 8
  ret { ptr, i8 } %10
}

; Function Attrs: mustprogress nounwind uwtable
define linkonce_odr hidden { ptr, i8 } @_ZN12HotSpotJVMCI28HotSpotResolvedPrimitiveType14get_primitivesEP8JVMCIEnv(ptr noundef %0) #1 comdat align 2 {
  %2 = alloca %class.JVMCIObjectArray, align 8
  %3 = alloca ptr, align 8
  %4 = alloca %class.JVMCIObject, align 8
  store ptr %0, ptr %3, align 8
  %5 = load ptr, ptr %3, align 8
  %6 = call noundef ptr @_ZN12HotSpotJVMCI28HotSpotResolvedPrimitiveType10primitivesEP8JVMCIEnv(ptr noundef %5)
  %7 = call { ptr, i8 } @_ZN12HotSpotJVMCI4wrapEP7oopDesc(ptr noundef %6)
  %8 = getelementptr inbounds { ptr, i8 }, ptr %4, i32 0, i32 0
  %9 = extractvalue { ptr, i8 } %7, 0
  store ptr %9, ptr %8, align 8
  %10 = getelementptr inbounds { ptr, i8 }, ptr %4, i32 0, i32 1
  %11 = extractvalue { ptr, i8 } %7, 1
  store i8 %11, ptr %10, align 8
  %12 = call { ptr, i8 } @_ZN11JVMCIObjectcv16JVMCIObjectArrayEv(ptr noundef nonnull align 8 dereferenceable(9) %4)
  %13 = getelementptr inbounds { ptr, i8 }, ptr %2, i32 0, i32 0
  %14 = extractvalue { ptr, i8 } %12, 0
  store ptr %14, ptr %13, align 8
  %15 = getelementptr inbounds { ptr, i8 }, ptr %2, i32 0, i32 1
  %16 = extractvalue { ptr, i8 } %12, 1
  store i8 %16, ptr %15, align 8
  %17 = load { ptr, i8 }, ptr %2, align 8
  ret { ptr, i8 } %17
}

; Function Attrs: mustprogress nounwind uwtable
define linkonce_odr hidden noundef zeroext i1 @_ZN8JVMCIEnv10is_hotspotEv(ptr noundef nonnull align 8 dereferenceable(64) %0) #1 comdat align 2 {
  %2 = alloca ptr, align 8
  store ptr %0, ptr %2, align 8
  %3 = load ptr, ptr %2, align 8
  %4 = getelementptr inbounds %class.JVMCIEnv, ptr %3, i32 0, i32 4
  %5 = load i8, ptr %4, align 8
  %6 = trunc i8 %5 to i1
  ret i1 %6
}

; Function Attrs: mustprogress nounwind uwtable
define hidden { ptr, i8 } @_ZN8JVMCIEnv43get_HotSpotResolvedPrimitiveType_primitivesEv(ptr noundef nonnull align 8 dereferenceable(64) %0) #1 align 2 {
  %2 = alloca %class.JVMCIObjectArray, align 8
  %3 = alloca ptr, align 8
  store ptr %0, ptr %3, align 8
  %4 = load ptr, ptr %3, align 8
  %5 = call noundef zeroext i1 @_ZN8JVMCIEnv10is_hotspotEv(ptr noundef nonnull align 8 dereferenceable(64) %4)
  br i1 %5, label %6, label %12

6:                                                ; preds = %1
  %7 = call { ptr, i8 } @_ZN12HotSpotJVMCI28HotSpotResolvedPrimitiveType14get_primitivesEP8JVMCIEnv(ptr noundef %4)
  %8 = getelementptr inbounds { ptr, i8 }, ptr %2, i32 0, i32 0
  %9 = extractvalue { ptr, i8 } %7, 0
  store ptr %9, ptr %8, align 8
  %10 = getelementptr inbounds { ptr, i8 }, ptr %2, i32 0, i32 1
  %11 = extractvalue { ptr, i8 } %7, 1
  store i8 %11, ptr %10, align 8
  br label %18

12:                                               ; preds = %1
  %13 = call { ptr, i8 } @_ZN8JNIJVMCI28HotSpotResolvedPrimitiveType14get_primitivesEP8JVMCIEnv(ptr noundef %4)
  %14 = getelementptr inbounds { ptr, i8 }, ptr %2, i32 0, i32 0
  %15 = extractvalue { ptr, i8 } %13, 0
  store ptr %15, ptr %14, align 8
  %16 = getelementptr inbounds { ptr, i8 }, ptr %2, i32 0, i32 1
  %17 = extractvalue { ptr, i8 } %13, 1
  store i8 %17, ptr %16, align 8
  br label %18

18:                                               ; preds = %12, %6
  %19 = load { ptr, i8 }, ptr %2, align 8
  ret { ptr, i8 } %19
}

; Function Attrs: mustprogress nounwind uwtable
define hidden { ptr, i8 } @_ZN8JVMCIEnv24get_jvmci_primitive_typeE9BasicType(ptr noundef nonnull align 8 dereferenceable(64) %0, i8 noundef zeroext %1) #1 align 2 {
  %3 = alloca %class.JVMCIObject, align 8
  %4 = alloca ptr, align 8
  %5 = alloca i8, align 1
  %6 = alloca %class.JVMCIObjectArray, align 8
  %7 = alloca %class.JVMCIObjectArray, align 8
  store ptr %0, ptr %4, align 8
  store i8 %1, ptr %5, align 1
  %8 = load ptr, ptr %4, align 8
  %9 = call { ptr, i8 } @_ZN8JVMCIEnv43get_HotSpotResolvedPrimitiveType_primitivesEv(ptr noundef nonnull align 8 dereferenceable(64) %8)
  %10 = getelementptr inbounds { ptr, i8 }, ptr %6, i32 0, i32 0
  %11 = extractvalue { ptr, i8 } %9, 0
  store ptr %11, ptr %10, align 8
  %12 = getelementptr inbounds { ptr, i8 }, ptr %6, i32 0, i32 1
  %13 = extractvalue { ptr, i8 } %9, 1
  store i8 %13, ptr %12, align 8
  call void @llvm.memcpy.p0.p0.i64(ptr align 8 %7, ptr align 8 %6, i64 16, i1 false)
  %14 = load i8, ptr %5, align 1
  %15 = zext i8 %14 to i32
  %16 = getelementptr inbounds { ptr, i8 }, ptr %7, i32 0, i32 0
  %17 = load ptr, ptr %16, align 8
  %18 = getelementptr inbounds { ptr, i8 }, ptr %7, i32 0, i32 1
  %19 = load i8, ptr %18, align 8
  %20 = call { ptr, i8 } @_ZN8JVMCIEnv13get_object_atE16JVMCIObjectArrayi(ptr noundef nonnull align 8 dereferenceable(64) %8, ptr %17, i8 %19, i32 noundef %15)
  %21 = getelementptr inbounds { ptr, i8 }, ptr %3, i32 0, i32 0
  %22 = extractvalue { ptr, i8 } %20, 0
  store ptr %22, ptr %21, align 8
  %23 = getelementptr inbounds { ptr, i8 }, ptr %3, i32 0, i32 1
  %24 = extractvalue { ptr, i8 } %20, 1
  store i8 %24, ptr %23, align 8
  %25 = load { ptr, i8 }, ptr %3, align 8
  ret { ptr, i8 } %25
}