; Function Attrs: mustprogress nounwind uwtable
define hidden { ptr, i8 } @_ZN8JVMCIEnv24get_jvmci_primitive_typeE9BasicType(ptr noundef nonnull align 8 dereferenceable(64) %0, i8 noundef zeroext %1) local_unnamed_addr #0 align 2 {
  %3 = getelementptr inbounds i8, ptr %0, i64 24
  %4 = load i8, ptr %3, align 8
  %5 = trunc i8 %4 to i1
  br i1 %5, label %6, label %11

6:                                                ; preds = %2
  %7 = tail call noundef ptr @_ZN12HotSpotJVMCI28HotSpotResolvedPrimitiveType10primitivesEP8JVMCIEnv(ptr noundef nonnull %0) #14
  %8 = tail call { ptr, i8 } @_ZN12HotSpotJVMCI4wrapEP7oopDesc(ptr noundef %7) #14
  %9 = extractvalue { ptr, i8 } %8, 1
  %10 = and i8 %9, 1
  %.fca.1.insert.i.i.i = insertvalue { ptr, i8 } %8, i8 %10, 1
  br label %_ZN8JVMCIEnv43get_HotSpotResolvedPrimitiveType_primitivesEv.exit

11:                                               ; preds = %2
  %12 = tail call { ptr, i8 } @_ZN8JNIJVMCI28HotSpotResolvedPrimitiveType14get_primitivesEP8JVMCIEnv(ptr noundef nonnull %0) #14
  br label %_ZN8JVMCIEnv43get_HotSpotResolvedPrimitiveType_primitivesEv.exit

_ZN8JVMCIEnv43get_HotSpotResolvedPrimitiveType_primitivesEv.exit: ; preds = %6, %11
  %.pn.i = phi { ptr, i8 } [ %.fca.1.insert.i.i.i, %6 ], [ %12, %11 ]
  %13 = extractvalue { ptr, i8 } %.pn.i, 0
  %14 = extractvalue { ptr, i8 } %.pn.i, 1
  %15 = zext i8 %1 to i32
  %16 = tail call { ptr, i8 } @_ZN8JVMCIEnv13get_object_atE16JVMCIObjectArrayi(ptr noundef nonnull align 8 dereferenceable(64) %0, ptr %13, i8 %14, i32 noundef %15)
  ret { ptr, i8 } %16
}